target datalayout = "e-m:e-p270:32:32-p271:32:32-p272:64:64-i64:64-i128:128-f80:128-n8:16:32:64-S128"
target triple = "x86_64-pc-linux-gnu"

@evdns_getaddrinfo_cancel_impl = internal global ptr null, align 8

; Function Attrs: nounwind uwtable
define void @evutil_set_evdns_getaddrinfo_cancel_fn_(ptr noundef %0) #0 {
  %2 = alloca ptr, align 8
  store ptr %0, ptr %2, align 8
  %3 = load ptr, ptr @evdns_getaddrinfo_cancel_impl, align 8
  %4 = icmp ne ptr %3, null
  br i1 %4, label %7, label %5

5:                                                ; preds = %1
  %6 = load ptr, ptr %2, align 8
  store ptr %6, ptr @evdns_getaddrinfo_cancel_impl, align 8
  br label %7

7:                                                ; preds = %5, %1
  ret void
}