; Function Attrs: mustprogress nofree norecurse nosync nounwind willreturn memory(readwrite, argmem: none, inaccessiblemem: none) uwtable
define void @evutil_set_evdns_getaddrinfo_cancel_fn_(ptr noundef %0) local_unnamed_addr #16 {
  %2 = load ptr, ptr @evdns_getaddrinfo_cancel_impl, align 8
  %.not = icmp eq ptr %2, null
  br i1 %.not, label %3, label %4

3:                                                ; preds = %1
  store ptr %0, ptr @evdns_getaddrinfo_cancel_impl, align 8
  br label %4

4:                                                ; preds = %3, %1
  ret void
}